target datalayout = "e-m:e-p270:32:32-p271:32:32-p272:64:64-i64:64-i128:128-f80:128-n8:16:32:64-S128"
target triple = "x86_64-pc-linux-gnu"

%class.QString = type { ptr }

@_ZTI11MLException = linkonce_odr constant { ptr, ptr, ptr } { ptr getelementptr inbounds (ptr, ptr @_ZTVN10__cxxabiv120__si_class_type_infoE, i64 2), ptr @_ZTS11MLException, ptr @_ZTISt9exception }, comdat, align 8
@.str.8 = private unnamed_addr constant [30 x i8] c"PR_ARITY passed as parameter!\00", align 1

; Function Attrs: mustprogress uwtable
define linkonce_odr void @_ZN7QStringC2EPKc(ptr noundef nonnull align 8 dereferenceable(8) %0, ptr noundef %1) unnamed_addr #5 comdat align 2 {
  %3 = alloca ptr, align 8
  %4 = alloca ptr, align 8
  store ptr %0, ptr %3, align 8
  store ptr %1, ptr %4, align 8
  %5 = load ptr, ptr %3, align 8
  %6 = getelementptr inbounds %class.QString, ptr %5, i32 0, i32 0
  %7 = load ptr, ptr %4, align 8
  %8 = load ptr, ptr %4, align 8
  %9 = icmp ne ptr %8, null
  br i1 %9, label %10, label %14

10:                                               ; preds = %2
  %11 = load ptr, ptr %4, align 8
  %12 = call i64 @strlen(ptr noundef %11) #17
  %13 = trunc i64 %12 to i32
  br label %15

14:                                               ; preds = %2
  br label %15

15:                                               ; preds = %14, %10
  %16 = phi i32 [ %13, %10 ], [ -1, %14 ]
  %17 = call noundef ptr @_ZN7QString16fromAscii_helperEPKci(ptr noundef %7, i32 noundef %16)
  store ptr %17, ptr %6, align 8
  ret void
}

; Function Attrs: mustprogress uwtable
define noundef zeroext i1 @_ZN29MLPoliciesStandAloneFunctions41isPrimitiveModalityCompatibleWithMeshInfoEbbbiN3vcg20GLMeshAttributesInfo18PRIMITIVE_MODALITYE(i1 noundef zeroext %0, i1 noundef zeroext %1, i1 noundef zeroext %2, i32 noundef %3, i32 noundef %4) #5 align 2 personality ptr @__gxx_personality_v0 {
  %6 = alloca i1, align 1
  %7 = alloca i8, align 1
  %8 = alloca i8, align 1
  %9 = alloca i8, align 1
  %10 = alloca i32, align 4
  %11 = alloca i32, align 4
  %12 = alloca %class.QString, align 8
  %13 = alloca ptr, align 8
  %14 = alloca i32, align 4
  %15 = alloca i1, align 1
  %16 = zext i1 %0 to i8
  store i8 %16, ptr %7, align 1
  %17 = zext i1 %1 to i8
  store i8 %17, ptr %8, align 1
  %18 = zext i1 %2 to i8
  store i8 %18, ptr %9, align 1
  store i32 %3, ptr %10, align 4
  store i32 %4, ptr %11, align 4
  %19 = load i32, ptr %11, align 4
  switch i32 %19, label %66 [
    i32 0, label %20
    i32 1, label %23
    i32 2, label %42
    i32 3, label %42
    i32 4, label %50
  ]

20:                                               ; preds = %5
  %21 = load i8, ptr %7, align 1
  %22 = trunc i8 %21 to i1
  store i1 %22, ptr %6, align 1
  br label %67

23:                                               ; preds = %5
  %24 = load i8, ptr %7, align 1
  %25 = trunc i8 %24 to i1
  br i1 %25, label %26, label %40

26:                                               ; preds = %23
  %27 = load i32, ptr %10, align 4
  %28 = and i32 %27, 1073741824
  %29 = icmp ne i32 %28, 0
  br i1 %29, label %38, label %30

30:                                               ; preds = %26
  %31 = load i8, ptr %8, align 1
  %32 = trunc i8 %31 to i1
  br i1 %32, label %36, label %33

33:                                               ; preds = %30
  %34 = load i8, ptr %9, align 1
  %35 = trunc i8 %34 to i1
  br label %36

36:                                               ; preds = %33, %30
  %37 = phi i1 [ false, %30 ], [ %35, %33 ]
  br label %38

38:                                               ; preds = %36, %26
  %39 = phi i1 [ true, %26 ], [ %37, %36 ]
  br label %40

40:                                               ; preds = %38, %23
  %41 = phi i1 [ false, %23 ], [ %39, %38 ]
  store i1 %41, ptr %6, align 1
  br label %67

42:                                               ; preds = %5, %5
  %43 = load i8, ptr %7, align 1
  %44 = trunc i8 %43 to i1
  br i1 %44, label %45, label %48

45:                                               ; preds = %42
  %46 = load i8, ptr %8, align 1
  %47 = trunc i8 %46 to i1
  br label %48

48:                                               ; preds = %45, %42
  %49 = phi i1 [ false, %42 ], [ %47, %45 ]
  store i1 %49, ptr %6, align 1
  br label %67

50:                                               ; preds = %5
  store i1 true, ptr %15, align 1
  %51 = call ptr @__cxa_allocate_exception(i64 24) #3
  invoke void @_ZN7QStringC2EPKc(ptr noundef nonnull align 8 dereferenceable(8) %12, ptr noundef @.str.8)
          to label %52 unwind label %54

52:                                               ; preds = %50
  invoke void @_ZN11MLExceptionC2ERK7QString(ptr noundef nonnull align 8 dereferenceable(24) %51, ptr noundef nonnull align 8 dereferenceable(8) %12)
          to label %53 unwind label %58

53:                                               ; preds = %52
  store i1 false, ptr %15, align 1
  invoke void @__cxa_throw(ptr %51, ptr @_ZTI11MLException, ptr @_ZN11MLExceptionD2Ev) #14
          to label %74 unwind label %58

54:                                               ; preds = %50
  %55 = landingpad { ptr, i32 }
          cleanup
  %56 = extractvalue { ptr, i32 } %55, 0
  store ptr %56, ptr %13, align 8
  %57 = extractvalue { ptr, i32 } %55, 1
  store i32 %57, ptr %14, align 4
  br label %62

58:                                               ; preds = %53, %52
  %59 = landingpad { ptr, i32 }
          cleanup
  %60 = extractvalue { ptr, i32 } %59, 0
  store ptr %60, ptr %13, align 8
  %61 = extractvalue { ptr, i32 } %59, 1
  store i32 %61, ptr %14, align 4
  call void @_ZN7QStringD2Ev(ptr noundef nonnull align 8 dereferenceable(8) %12) #3
  br label %62

62:                                               ; preds = %58, %54
  %63 = load i1, ptr %15, align 1
  br i1 %63, label %64, label %65

64:                                               ; preds = %62
  call void @__cxa_free_exception(ptr %51) #3
  br label %65

65:                                               ; preds = %64, %62
  br label %69

66:                                               ; preds = %5
  store i1 false, ptr %6, align 1
  br label %67

67:                                               ; preds = %66, %48, %40, %20
  %68 = load i1, ptr %6, align 1
  ret i1 %68

69:                                               ; preds = %65
  %70 = load ptr, ptr %13, align 8
  %71 = load i32, ptr %14, align 4
  %72 = insertvalue { ptr, i32 } poison, ptr %70, 0
  %73 = insertvalue { ptr, i32 } %72, i32 %71, 1
  resume { ptr, i32 } %73

74:                                               ; preds = %53
  unreachable
}