; Function Attrs: mustprogress uwtable
define noundef zeroext i1 @_ZN29MLPoliciesStandAloneFunctions41isPrimitiveModalityCompatibleWithMeshInfoEbbbiN3vcg20GLMeshAttributesInfo18PRIMITIVE_MODALITYE(i1 noundef zeroext %0, i1 noundef zeroext %1, i1 noundef zeroext %2, i32 noundef %3, i32 noundef %4) local_unnamed_addr #9 align 2 personality ptr @__gxx_personality_v0 {
  %6 = alloca %class.QString, align 8
  switch i32 %4, label %24 [
    i32 0, label %25
    i32 1, label %7
    i32 2, label %12
    i32 3, label %12
    i32 4, label %14
  ]

7:                                                ; preds = %5
  br i1 %0, label %8, label %25

8:                                                ; preds = %7
  %9 = and i32 %3, 1073741824
  %.not = icmp eq i32 %9, 0
  br i1 %.not, label %10, label %25

10:                                               ; preds = %8
  %not. = xor i1 %1, true
  %11 = and i1 %not., %2
  br label %25

12:                                               ; preds = %5, %5
  %13 = and i1 %0, %1
  br label %25

14:                                               ; preds = %5
  %15 = tail call ptr @__cxa_allocate_exception(i64 24) #22
  %16 = invoke noundef ptr @_ZN7QString16fromAscii_helperEPKci(ptr noundef nonnull @.str.8, i32 noundef 29)
          to label %17 unwind label %.thread

17:                                               ; preds = %14
  store ptr %16, ptr %6, align 8
  invoke void @_ZN11MLExceptionC2ERK7QString(ptr noundef nonnull align 8 dereferenceable(24) %15, ptr noundef nonnull align 8 dereferenceable(8) %6)
          to label %19 unwind label %.thread19

.thread19:                                        ; preds = %17
  %18 = landingpad { ptr, i32 }
          cleanup
  call void @_ZN7QStringD2Ev(ptr noundef nonnull align 8 dereferenceable(8) %6) #22
  br label %23

19:                                               ; preds = %17
  invoke void @__cxa_throw(ptr nonnull %15, ptr nonnull @_ZTI11MLException, ptr nonnull @_ZN11MLExceptionD2Ev) #26
          to label %27 unwind label %21

.thread:                                          ; preds = %14
  %20 = landingpad { ptr, i32 }
          cleanup
  br label %23

21:                                               ; preds = %19
  %22 = landingpad { ptr, i32 }
          cleanup
  call void @_ZN7QStringD2Ev(ptr noundef nonnull align 8 dereferenceable(8) %6) #22
  br label %26

23:                                               ; preds = %.thread19, %.thread
  %.pn18 = phi { ptr, i32 } [ %20, %.thread ], [ %18, %.thread19 ]
  call void @__cxa_free_exception(ptr %15) #22
  br label %26

24:                                               ; preds = %5
  br label %25

25:                                               ; preds = %7, %10, %8, %5, %24, %12
  %.013 = phi i1 [ false, %24 ], [ %13, %12 ], [ %0, %5 ], [ false, %7 ], [ true, %8 ], [ %11, %10 ]
  ret i1 %.013

26:                                               ; preds = %21, %23
  %.pn17 = phi { ptr, i32 } [ %22, %21 ], [ %.pn18, %23 ]
  resume { ptr, i32 } %.pn17

27:                                               ; preds = %19
  unreachable
}